; Function Attrs: mustprogress nofree norecurse nosync nounwind sspstrong willreturn memory(argmem: readwrite) uwtable
define internal range(i64 2, 5) i64 @fun_so_to_utf_16be(ptr readnone captures(none) %0, ptr noundef readonly captures(none) %1, i64 %2, ptr noundef writeonly captures(none) initializes((0, 1)) %3, i64 %4) #2 {
  %6 = load i8, ptr %1, align 1, !tbaa !6
  %7 = zext i8 %6 to i32
  %.not = icmp sgt i8 %6, -1
  br i1 %.not, label %8, label %10

8:                                                ; preds = %5
  store i8 0, ptr %3, align 1, !tbaa !6
  %9 = load i8, ptr %1, align 1, !tbaa !6
  br label %76

10:                                               ; preds = %5
  %11 = and i32 %7, 224
  %12 = icmp eq i32 %11, 192
  br i1 %12, label %13, label %22

13:                                               ; preds = %10
  %14 = lshr i8 %6, 2
  %15 = and i8 %14, 7
  store i8 %15, ptr %3, align 1, !tbaa !6
  %16 = load i8, ptr %1, align 1, !tbaa !6
  %17 = shl i8 %16, 6
  %18 = getelementptr inbounds nuw i8, ptr %1, i64 1
  %19 = load i8, ptr %18, align 1, !tbaa !6
  %20 = and i8 %19, 63
  %21 = or disjoint i8 %20, %17
  br label %76

22:                                               ; preds = %10
  %23 = and i32 %7, 240
  %24 = icmp eq i32 %23, 224
  br i1 %24, label %25, label %38

25:                                               ; preds = %22
  %26 = shl i8 %6, 4
  %27 = getelementptr inbounds nuw i8, ptr %1, i64 1
  %28 = load i8, ptr %27, align 1, !tbaa !6
  %29 = lshr i8 %28, 2
  %30 = xor i8 %29, 32
  %31 = or i8 %30, %26
  store i8 %31, ptr %3, align 1, !tbaa !6
  %32 = load i8, ptr %27, align 1, !tbaa !6
  %33 = shl i8 %32, 6
  %34 = getelementptr inbounds nuw i8, ptr %1, i64 2
  %35 = load i8, ptr %34, align 1, !tbaa !6
  %36 = xor i8 %35, -128
  %37 = or i8 %36, %33
  br label %76

38:                                               ; preds = %22
  %39 = shl nuw nsw i32 %7, 2
  %40 = and i32 %39, 28
  %41 = getelementptr inbounds nuw i8, ptr %1, i64 1
  %42 = load i8, ptr %41, align 1, !tbaa !6
  %43 = lshr i8 %42, 4
  %44 = and i8 %43, 3
  %45 = zext nneg i8 %44 to i32
  %46 = or disjoint i32 %40, %45
  %47 = add nsw i32 %46, -1
  %48 = trunc nsw i32 %47 to i8
  %49 = lshr i8 %48, 2
  %50 = or i8 %49, -40
  store i8 %50, ptr %3, align 1, !tbaa !6
  %51 = shl nsw i32 %47, 6
  %52 = load i8, ptr %41, align 1, !tbaa !6
  %53 = shl i8 %52, 2
  %54 = and i8 %53, 60
  %55 = zext nneg i8 %54 to i32
  %56 = or disjoint i32 %51, %55
  %57 = getelementptr inbounds nuw i8, ptr %1, i64 2
  %58 = load i8, ptr %57, align 1, !tbaa !6
  %59 = lshr i8 %58, 4
  %60 = zext nneg i8 %59 to i32
  %61 = add nuw nsw i32 %60, 248
  %62 = or i32 %56, %61
  %63 = trunc i32 %62 to i8
  %64 = getelementptr inbounds nuw i8, ptr %3, i64 1
  store i8 %63, ptr %64, align 1, !tbaa !6
  %65 = load i8, ptr %57, align 1, !tbaa !6
  %66 = lshr i8 %65, 2
  %67 = and i8 %66, 3
  %68 = or disjoint i8 %67, -36
  %69 = getelementptr inbounds nuw i8, ptr %3, i64 2
  store i8 %68, ptr %69, align 1, !tbaa !6
  %70 = load i8, ptr %57, align 1, !tbaa !6
  %71 = shl i8 %70, 6
  %72 = getelementptr inbounds nuw i8, ptr %1, i64 3
  %73 = load i8, ptr %72, align 1, !tbaa !6
  %74 = and i8 %73, 127
  %75 = or i8 %74, %71
  br label %76

76:                                               ; preds = %38, %25, %13, %8
  %.sink31 = phi i64 [ 3, %38 ], [ 1, %25 ], [ 1, %13 ], [ 1, %8 ]
  %.sink = phi i8 [ %75, %38 ], [ %37, %25 ], [ %21, %13 ], [ %9, %8 ]
  %.0 = phi i64 [ 4, %38 ], [ 2, %25 ], [ 2, %13 ], [ 2, %8 ]
  %77 = getelementptr inbounds nuw i8, ptr %3, i64 %.sink31
  store i8 %.sink, ptr %77, align 1, !tbaa !6
  ret i64 %.0
}